ccopy_reg
_reconstructor
p0
(cpulast
Track
p1
c__builtin__
object
p2
Ntp3
Rp4
(dp5
S'ws_prefix'
p6
S'track'
p7
sS'title'
p8
VUnbreakable
p9
sS'network'
p10
g0
(cpulast
LastFMNetwork
p11
g2
Ntp12
Rp13
(dp14
S'username'
p15
S'petmiker'
p16
sS'cache_backend'
p17
NsS'session_key'
p18
V97da9269d8def665526c521cf0a1e418
p19
sS'name'
p20
S'Last.fm'
p21
sS'api_secret'
p22
S'd45dcf1b6c1921a7157297a299fb5e5a'
p23
sS'domain_names'
p24
(dp25
I0
S'www.last.fm'
p26
sI1
S'www.lastfm.de'
p27
sI2
S'www.lastfm.es'
p28
sI3
S'www.lastfm.fr'
p29
sI4
S'www.lastfm.it'
p30
sI5
S'www.lastfm.pl'
p31
sI6
S'www.lastfm.com.br'
p32
sI7
S'www.lastfm.se'
p33
sI8
S'www.lastfm.com.tr'
p34
sI9
S'www.lastfm.ru'
p35
sI10
S'www.lastfm.jp'
p36
sI11
S'cn.last.fm'
p37
ssS'proxy_enabled'
p38
I00
sS'submission_server'
p39
S'http://post.audioscrobbler.com:80/'
p40
sS'proxy'
p41
NsS'urls'
p42
(dp43
S'album'
p44
S'music/%(artist)s/%(album)s'
p45
sS'playlist'
p46
S'user/%(user)s/library/playlists/%(appendix)s'
p47
sS'tag'
p48
S'tag/%(name)s'
p49
sS'group'
p50
S'group/%(name)s'
p51
sS'user'
p52
S'user/%(name)s'
p53
sS'artist'
p54
S'music/%(artist)s'
p55
sg7
S'music/%(artist)s/_/%(title)s'
p56
sS'country'
p57
S'place/%(country_name)s'
p58
sS'event'
p59
S'event/%(id)s'
p60
ssS'last_call_time'
p61
I0
sS'api_key'
p62
S'f1a01dc19e25cfa39158d9c72695fdda'
p63
sS'homepage'
p64
S'http://last.fm'
p65
sS'ws_server'
p66
(S'ws.audioscrobbler.com'
p67
S'/2.0/'
p68
tp69
sS'password_hash'
p70
S'0b4681b2fee065119415efe04e69d091'
p71
sbsg54
g0
(cpulast
Artist
p72
g2
Ntp73
Rp74
(dp75
g6
g54
sg10
g13
sg20
VMichael Jackson
p76
sbsb.